target datalayout = "e-m:e-p270:32:32-p271:32:32-p272:64:64-i64:64-i128:128-f80:128-n8:16:32:64-S128"
target triple = "x86_64-unknown-linux-gnu"

%struct.VirtIOBlockDataPlane = type { i8, i8, ptr, ptr, ptr, ptr }
%struct.VirtIOBlkConf = type { %struct.BlockConf, ptr, ptr, i32, i16, i16, i8, i8, i32, i32, i8 }
%struct.BlockConf = type { ptr, i32, i32, i32, i32, i32, i32, i32, i32, i32, i32, i32, i32, i32, i32, i8, i32, i32, i32, i32 }
%struct.VirtioBusClass = type { %struct.BusClass, ptr, ptr, ptr, ptr, ptr, ptr, ptr, ptr, ptr, ptr, ptr, ptr, ptr, ptr, ptr, ptr, ptr, ptr, ptr, ptr, i8, ptr, ptr }
%struct.BusClass = type { %struct.ObjectClass, ptr, ptr, ptr, ptr, ptr, ptr, ptr, i32, i32 }
%struct.ObjectClass = type { ptr, ptr, [4 x ptr], [4 x ptr], ptr, ptr }

@.str = private unnamed_addr constant [40 x i8] c"../qemu/hw/block/dataplane/virtio-blk.c\00", align 1
@__func__.virtio_blk_data_plane_create = private unnamed_addr constant [29 x i8] c"virtio_blk_data_plane_create\00", align 1
@.str.1 = private unnamed_addr constant [76 x i8] c"device is incompatible with iothread (transport does not support notifiers)\00", align 1
@.str.2 = private unnamed_addr constant [35 x i8] c"ioeventfd is required for iothread\00", align 1
@.str.3 = private unnamed_addr constant [36 x i8] c"cannot start virtio-blk dataplane: \00", align 1
@.str.7 = private unnamed_addr constant [4 x i8] c"bus\00", align 1
@.str.8 = private unnamed_addr constant [101 x i8] c"/home/dtcxzyw/WorkSpace/Projects/compilers/llvm-opt-benchmark/bench/qemu/qemu/include/hw/qdev-core.h\00", align 1
@__func__.BUS = private unnamed_addr constant [4 x i8] c"BUS\00", align 1
@.str.9 = private unnamed_addr constant [7 x i8] c"device\00", align 1
@__func__.DEVICE = private unnamed_addr constant [7 x i8] c"DEVICE\00", align 1
@.str.10 = private unnamed_addr constant [11 x i8] c"virtio-bus\00", align 1
@.str.11 = private unnamed_addr constant [109 x i8] c"/home/dtcxzyw/WorkSpace/Projects/compilers/llvm-opt-benchmark/bench/qemu/qemu/include/hw/virtio/virtio-bus.h\00", align 1
@__func__.VIRTIO_BUS_GET_CLASS = private unnamed_addr constant [21 x i8] c"VIRTIO_BUS_GET_CLASS\00", align 1

; Function Attrs: nounwind sspstrong uwtable
define internal ptr @VIRTIO_BUS_GET_CLASS(ptr noundef %obj) #0 {
entry:
  %obj.addr = alloca ptr, align 8
  store ptr %obj, ptr %obj.addr, align 8
  %0 = load ptr, ptr %obj.addr, align 8
  %call = call ptr @object_get_class(ptr noundef %0)
  %call1 = call ptr @object_class_dynamic_cast_assert(ptr noundef %call, ptr noundef @.str.10, ptr noundef @.str.11, i32 noundef 36, ptr noundef @__func__.VIRTIO_BUS_GET_CLASS)
  ret ptr %call1
}

; Function Attrs: nounwind sspstrong uwtable
define internal ptr @BUS(ptr noundef %obj) #0 {
entry:
  %obj.addr = alloca ptr, align 8
  store ptr %obj, ptr %obj.addr, align 8
  %0 = load ptr, ptr %obj.addr, align 8
  %call = call ptr @object_dynamic_cast_assert(ptr noundef %0, ptr noundef @.str.7, ptr noundef @.str.8, i32 noundef 316, ptr noundef @__func__.BUS)
  ret ptr %call
}

; Function Attrs: nounwind sspstrong uwtable
define internal ptr @DEVICE(ptr noundef %obj) #0 {
entry:
  %obj.addr = alloca ptr, align 8
  store ptr %obj, ptr %obj.addr, align 8
  %0 = load ptr, ptr %obj.addr, align 8
  %call = call ptr @object_dynamic_cast_assert(ptr noundef %0, ptr noundef @.str.9, ptr noundef @.str.8, i32 noundef 77, ptr noundef @__func__.DEVICE)
  ret ptr %call
}

; Function Attrs: nounwind sspstrong uwtable
define dso_local zeroext i1 @virtio_blk_data_plane_create(ptr noundef %vdev, ptr noundef %conf, ptr noundef %dataplane, ptr noundef %errp) #0 {
entry:
  %retval = alloca i1, align 1
  %vdev.addr = alloca ptr, align 8
  %conf.addr = alloca ptr, align 8
  %dataplane.addr = alloca ptr, align 8
  %errp.addr = alloca ptr, align 8
  %s = alloca ptr, align 8
  %qbus = alloca ptr, align 8
  %k = alloca ptr, align 8
  store ptr %vdev, ptr %vdev.addr, align 8
  store ptr %conf, ptr %conf.addr, align 8
  store ptr %dataplane, ptr %dataplane.addr, align 8
  store ptr %errp, ptr %errp.addr, align 8
  %0 = load ptr, ptr %vdev.addr, align 8
  %call = call ptr @DEVICE(ptr noundef %0)
  %call1 = call ptr @qdev_get_parent_bus(ptr noundef %call)
  %call2 = call ptr @BUS(ptr noundef %call1)
  store ptr %call2, ptr %qbus, align 8
  %1 = load ptr, ptr %qbus, align 8
  %call3 = call ptr @VIRTIO_BUS_GET_CLASS(ptr noundef %1)
  store ptr %call3, ptr %k, align 8
  %2 = load ptr, ptr %dataplane.addr, align 8
  store ptr null, ptr %2, align 8
  %3 = load ptr, ptr %conf.addr, align 8
  %iothread = getelementptr inbounds %struct.VirtIOBlkConf, ptr %3, i32 0, i32 1
  %4 = load ptr, ptr %iothread, align 8
  %tobool = icmp ne ptr %4, null
  br i1 %tobool, label %if.then, label %if.end14

if.then:                                          ; preds = %entry
  %5 = load ptr, ptr %k, align 8
  %set_guest_notifiers = getelementptr inbounds %struct.VirtioBusClass, ptr %5, i32 0, i32 11
  %6 = load ptr, ptr %set_guest_notifiers, align 8
  %tobool4 = icmp ne ptr %6, null
  br i1 %tobool4, label %lor.lhs.false, label %if.then6

lor.lhs.false:                                    ; preds = %if.then
  %7 = load ptr, ptr %k, align 8
  %ioeventfd_assign = getelementptr inbounds %struct.VirtioBusClass, ptr %7, i32 0, i32 19
  %8 = load ptr, ptr %ioeventfd_assign, align 8
  %tobool5 = icmp ne ptr %8, null
  br i1 %tobool5, label %if.end, label %if.then6

if.then6:                                         ; preds = %lor.lhs.false, %if.then
  %9 = load ptr, ptr %errp.addr, align 8
  call void (ptr, ptr, i32, ptr, ptr, ...) @error_setg_internal(ptr noundef %9, ptr noundef @.str, i32 noundef 65, ptr noundef @__func__.virtio_blk_data_plane_create, ptr noundef @.str.1)
  store i1 false, ptr %retval, align 1
  br label %return

if.end:                                           ; preds = %lor.lhs.false
  %10 = load ptr, ptr %vdev.addr, align 8
  %call7 = call zeroext i1 @virtio_device_ioeventfd_enabled(ptr noundef %10)
  br i1 %call7, label %if.end9, label %if.then8

if.then8:                                         ; preds = %if.end
  %11 = load ptr, ptr %errp.addr, align 8
  call void (ptr, ptr, i32, ptr, ptr, ...) @error_setg_internal(ptr noundef %11, ptr noundef @.str, i32 noundef 69, ptr noundef @__func__.virtio_blk_data_plane_create, ptr noundef @.str.2)
  store i1 false, ptr %retval, align 1
  br label %return

if.end9:                                          ; preds = %if.end
  %12 = load ptr, ptr %conf.addr, align 8
  %conf10 = getelementptr inbounds %struct.VirtIOBlkConf, ptr %12, i32 0, i32 0
  %blk = getelementptr inbounds %struct.BlockConf, ptr %conf10, i32 0, i32 0
  %13 = load ptr, ptr %blk, align 8
  %14 = load ptr, ptr %errp.addr, align 8
  %call11 = call zeroext i1 @blk_op_is_blocked(ptr noundef %13, i32 noundef 5, ptr noundef %14)
  br i1 %call11, label %if.then12, label %if.end13

if.then12:                                        ; preds = %if.end9
  %15 = load ptr, ptr %errp.addr, align 8
  call void (ptr, ptr, ...) @error_prepend(ptr noundef %15, ptr noundef @.str.3)
  store i1 false, ptr %retval, align 1
  br label %return

if.end13:                                         ; preds = %if.end9
  br label %if.end14

if.end14:                                         ; preds = %if.end13, %entry
  %16 = load ptr, ptr %vdev.addr, align 8
  %call15 = call zeroext i1 @virtio_device_ioeventfd_enabled(ptr noundef %16)
  br i1 %call15, label %if.end17, label %if.then16

if.then16:                                        ; preds = %if.end14
  store i1 false, ptr %retval, align 1
  br label %return

if.end17:                                         ; preds = %if.end14
  %call18 = call noalias ptr @g_malloc0_n(i64 noundef 1, i64 noundef 40) #5
  store ptr %call18, ptr %s, align 8
  %17 = load ptr, ptr %vdev.addr, align 8
  %18 = load ptr, ptr %s, align 8
  %vdev19 = getelementptr inbounds %struct.VirtIOBlockDataPlane, ptr %18, i32 0, i32 3
  store ptr %17, ptr %vdev19, align 8
  %19 = load ptr, ptr %conf.addr, align 8
  %20 = load ptr, ptr %s, align 8
  %conf20 = getelementptr inbounds %struct.VirtIOBlockDataPlane, ptr %20, i32 0, i32 2
  store ptr %19, ptr %conf20, align 8
  %21 = load ptr, ptr %conf.addr, align 8
  %iothread21 = getelementptr inbounds %struct.VirtIOBlkConf, ptr %21, i32 0, i32 1
  %22 = load ptr, ptr %iothread21, align 8
  %tobool22 = icmp ne ptr %22, null
  br i1 %tobool22, label %if.then23, label %if.else

if.then23:                                        ; preds = %if.end17
  %23 = load ptr, ptr %conf.addr, align 8
  %iothread24 = getelementptr inbounds %struct.VirtIOBlkConf, ptr %23, i32 0, i32 1
  %24 = load ptr, ptr %iothread24, align 8
  %25 = load ptr, ptr %s, align 8
  %iothread25 = getelementptr inbounds %struct.VirtIOBlockDataPlane, ptr %25, i32 0, i32 4
  store ptr %24, ptr %iothread25, align 8
  %26 = load ptr, ptr %s, align 8
  %iothread26 = getelementptr inbounds %struct.VirtIOBlockDataPlane, ptr %26, i32 0, i32 4
  %27 = load ptr, ptr %iothread26, align 8
  %call27 = call ptr @object_ref(ptr noundef %27)
  %28 = load ptr, ptr %s, align 8
  %iothread28 = getelementptr inbounds %struct.VirtIOBlockDataPlane, ptr %28, i32 0, i32 4
  %29 = load ptr, ptr %iothread28, align 8
  %call29 = call ptr @iothread_get_aio_context(ptr noundef %29)
  %30 = load ptr, ptr %s, align 8
  %ctx = getelementptr inbounds %struct.VirtIOBlockDataPlane, ptr %30, i32 0, i32 5
  store ptr %call29, ptr %ctx, align 8
  br label %if.end32

if.else:                                          ; preds = %if.end17
  %call30 = call ptr @qemu_get_aio_context()
  %31 = load ptr, ptr %s, align 8
  %ctx31 = getelementptr inbounds %struct.VirtIOBlockDataPlane, ptr %31, i32 0, i32 5
  store ptr %call30, ptr %ctx31, align 8
  br label %if.end32

if.end32:                                         ; preds = %if.else, %if.then23
  %32 = load ptr, ptr %s, align 8
  %33 = load ptr, ptr %dataplane.addr, align 8
  store ptr %32, ptr %33, align 8
  store i1 true, ptr %retval, align 1
  br label %return

return:                                           ; preds = %if.end32, %if.then16, %if.then12, %if.then8, %if.then6
  %34 = load i1, ptr %retval, align 1
  ret i1 %34
}