; Function Attrs: nounwind sspstrong uwtable
define dso_local noundef zeroext i1 @virtio_blk_data_plane_create(ptr noundef %vdev, ptr noundef %conf, ptr noundef writeonly captures(none) initializes((0, 8)) %dataplane, ptr noundef %errp) local_unnamed_addr #0 {
entry:
  %call.i = tail call ptr @object_dynamic_cast_assert(ptr noundef %vdev, ptr noundef nonnull @.str.9, ptr noundef nonnull @.str.8, i32 noundef 77, ptr noundef nonnull @__func__.DEVICE) #6
  %call1 = tail call ptr @qdev_get_parent_bus(ptr noundef %call.i) #6
  %call.i20 = tail call ptr @object_dynamic_cast_assert(ptr noundef %call1, ptr noundef nonnull @.str.7, ptr noundef nonnull @.str.8, i32 noundef 316, ptr noundef nonnull @__func__.BUS) #6
  %call.i21 = tail call ptr @object_get_class(ptr noundef %call.i20) #6
  %call1.i = tail call ptr @object_class_dynamic_cast_assert(ptr noundef %call.i21, ptr noundef nonnull @.str.10, ptr noundef nonnull @.str.11, i32 noundef 36, ptr noundef nonnull @__func__.VIRTIO_BUS_GET_CLASS) #6
  store ptr null, ptr %dataplane, align 8
  %iothread = getelementptr inbounds nuw i8, ptr %conf, i64 88
  %0 = load ptr, ptr %iothread, align 8
  %tobool.not = icmp eq ptr %0, null
  br i1 %tobool.not, label %if.end14, label %if.then

if.then:                                          ; preds = %entry
  %set_guest_notifiers = getelementptr inbounds nuw i8, ptr %call1.i, i64 240
  %1 = load ptr, ptr %set_guest_notifiers, align 8
  %tobool4.not = icmp eq ptr %1, null
  br i1 %tobool4.not, label %if.then6, label %lor.lhs.false

lor.lhs.false:                                    ; preds = %if.then
  %ioeventfd_assign = getelementptr inbounds nuw i8, ptr %call1.i, i64 304
  %2 = load ptr, ptr %ioeventfd_assign, align 8
  %tobool5.not = icmp eq ptr %2, null
  br i1 %tobool5.not, label %if.then6, label %if.end

if.then6:                                         ; preds = %lor.lhs.false, %if.then
  tail call void (ptr, ptr, i32, ptr, ptr, ...) @error_setg_internal(ptr noundef %errp, ptr noundef nonnull @.str, i32 noundef 65, ptr noundef nonnull @__func__.virtio_blk_data_plane_create, ptr noundef nonnull @.str.1) #6
  br label %return

if.end:                                           ; preds = %lor.lhs.false
  %call7 = tail call zeroext i1 @virtio_device_ioeventfd_enabled(ptr noundef %vdev) #6
  br i1 %call7, label %if.end9, label %if.then8

if.then8:                                         ; preds = %if.end
  tail call void (ptr, ptr, i32, ptr, ptr, ...) @error_setg_internal(ptr noundef %errp, ptr noundef nonnull @.str, i32 noundef 69, ptr noundef nonnull @__func__.virtio_blk_data_plane_create, ptr noundef nonnull @.str.2) #6
  br label %return

if.end9:                                          ; preds = %if.end
  %3 = load ptr, ptr %conf, align 8
  %call11 = tail call zeroext i1 @blk_op_is_blocked(ptr noundef %3, i32 noundef 5, ptr noundef %errp) #6
  br i1 %call11, label %if.then12, label %if.end14

if.then12:                                        ; preds = %if.end9
  tail call void (ptr, ptr, ...) @error_prepend(ptr noundef %errp, ptr noundef nonnull @.str.3) #6
  br label %return

if.end14:                                         ; preds = %if.end9, %entry
  %call15 = tail call zeroext i1 @virtio_device_ioeventfd_enabled(ptr noundef %vdev) #6
  br i1 %call15, label %if.end17, label %return

if.end17:                                         ; preds = %if.end14
  %call18 = tail call noalias dereferenceable_or_null(40) ptr @g_malloc0_n(i64 noundef 1, i64 noundef 40) #7
  %vdev19 = getelementptr inbounds nuw i8, ptr %call18, i64 16
  store ptr %vdev, ptr %vdev19, align 8
  %conf20 = getelementptr inbounds nuw i8, ptr %call18, i64 8
  store ptr %conf, ptr %conf20, align 8
  %4 = load ptr, ptr %iothread, align 8
  %tobool22.not = icmp eq ptr %4, null
  br i1 %tobool22.not, label %if.else, label %if.then23

if.then23:                                        ; preds = %if.end17
  %iothread25 = getelementptr inbounds nuw i8, ptr %call18, i64 24
  store ptr %4, ptr %iothread25, align 8
  %call27 = tail call ptr @object_ref(ptr noundef nonnull %4) #6
  %call29 = tail call ptr @iothread_get_aio_context(ptr noundef nonnull %4) #6
  br label %if.end32

if.else:                                          ; preds = %if.end17
  %call30 = tail call ptr @qemu_get_aio_context() #6
  br label %if.end32

if.end32:                                         ; preds = %if.else, %if.then23
  %call29.sink = phi ptr [ %call30, %if.else ], [ %call29, %if.then23 ]
  %5 = getelementptr inbounds nuw i8, ptr %call18, i64 32
  store ptr %call29.sink, ptr %5, align 8
  store ptr %call18, ptr %dataplane, align 8
  br label %return

return:                                           ; preds = %if.end14, %if.end32, %if.then12, %if.then8, %if.then6
  %retval.0 = phi i1 [ false, %if.then12 ], [ true, %if.end32 ], [ false, %if.then8 ], [ false, %if.then6 ], [ false, %if.end14 ]
  ret i1 %retval.0
}